
outputtest.elf:     file format elf32-avr

Sections:
Idx Name          Size      VMA       LMA       File off  Algn
  0 .data         000003c0  00800100  00000a50  00000ae4  2**0
                  CONTENTS, ALLOC, LOAD, DATA
  1 .text         00000a50  00000000  00000000  00000094  2**1
                  CONTENTS, ALLOC, LOAD, READONLY, CODE
  2 .bss          000003ec  008004c0  008004c0  00000ea4  2**0
                  ALLOC
  3 .comment      00000030  00000000  00000000  00000ea4  2**0
                  CONTENTS, READONLY
  4 .debug_aranges 00000160  00000000  00000000  00000ed4  2**0
                  CONTENTS, READONLY, DEBUGGING
  5 .debug_info   000014c6  00000000  00000000  00001034  2**0
                  CONTENTS, READONLY, DEBUGGING
  6 .debug_abbrev 0000067f  00000000  00000000  000024fa  2**0
                  CONTENTS, READONLY, DEBUGGING
  7 .debug_line   000007a9  00000000  00000000  00002b79  2**0
                  CONTENTS, READONLY, DEBUGGING
  8 .debug_frame  000003d8  00000000  00000000  00003324  2**2
                  CONTENTS, READONLY, DEBUGGING
  9 .debug_str    00000595  00000000  00000000  000036fc  2**0
                  CONTENTS, READONLY, DEBUGGING
 10 .debug_loc    00000d11  00000000  00000000  00003c91  2**0
                  CONTENTS, READONLY, DEBUGGING
 11 .debug_ranges 00000160  00000000  00000000  000049a2  2**0
                  CONTENTS, READONLY, DEBUGGING

Disassembly of section .text:

00000000 <__vectors>:
   0:	0c 94 46 00 	jmp	0x8c	; 0x8c <__ctors_end>
   4:	0c 94 65 00 	jmp	0xca	; 0xca <__bad_interrupt>
   8:	0c 94 65 00 	jmp	0xca	; 0xca <__bad_interrupt>
   c:	0c 94 65 00 	jmp	0xca	; 0xca <__bad_interrupt>
  10:	0c 94 65 00 	jmp	0xca	; 0xca <__bad_interrupt>
  14:	0c 94 65 00 	jmp	0xca	; 0xca <__bad_interrupt>
  18:	0c 94 65 00 	jmp	0xca	; 0xca <__bad_interrupt>
  1c:	0c 94 65 00 	jmp	0xca	; 0xca <__bad_interrupt>
  20:	0c 94 65 00 	jmp	0xca	; 0xca <__bad_interrupt>
  24:	0c 94 85 03 	jmp	0x70a	; 0x70a <__vector_9>
  28:	0c 94 65 00 	jmp	0xca	; 0xca <__bad_interrupt>
  2c:	0c 94 65 00 	jmp	0xca	; 0xca <__bad_interrupt>
  30:	0c 94 65 00 	jmp	0xca	; 0xca <__bad_interrupt>
  34:	0c 94 ab 03 	jmp	0x756	; 0x756 <__vector_13>
  38:	0c 94 65 00 	jmp	0xca	; 0xca <__bad_interrupt>
  3c:	0c 94 65 00 	jmp	0xca	; 0xca <__bad_interrupt>
  40:	0c 94 d3 03 	jmp	0x7a6	; 0x7a6 <__vector_16>
  44:	0c 94 65 00 	jmp	0xca	; 0xca <__bad_interrupt>
  48:	0c 94 65 00 	jmp	0xca	; 0xca <__bad_interrupt>
  4c:	0c 94 65 00 	jmp	0xca	; 0xca <__bad_interrupt>
  50:	0c 94 65 00 	jmp	0xca	; 0xca <__bad_interrupt>
  54:	0c 94 65 00 	jmp	0xca	; 0xca <__bad_interrupt>
  58:	0c 94 65 00 	jmp	0xca	; 0xca <__bad_interrupt>
  5c:	0c 94 65 00 	jmp	0xca	; 0xca <__bad_interrupt>
  60:	0c 94 68 03 	jmp	0x6d0	; 0x6d0 <__vector_24>
  64:	0c 94 65 00 	jmp	0xca	; 0xca <__bad_interrupt>
  68:	0c 94 65 00 	jmp	0xca	; 0xca <__bad_interrupt>
  6c:	0c 94 65 00 	jmp	0xca	; 0xca <__bad_interrupt>
  70:	0c 94 65 00 	jmp	0xca	; 0xca <__bad_interrupt>
  74:	0c 94 65 00 	jmp	0xca	; 0xca <__bad_interrupt>
  78:	0c 94 65 00 	jmp	0xca	; 0xca <__bad_interrupt>
  7c:	0c 94 65 00 	jmp	0xca	; 0xca <__bad_interrupt>
  80:	0c 94 65 00 	jmp	0xca	; 0xca <__bad_interrupt>
  84:	0c 94 65 00 	jmp	0xca	; 0xca <__bad_interrupt>
  88:	0c 94 65 00 	jmp	0xca	; 0xca <__bad_interrupt>

0000008c <__ctors_end>:
  8c:	11 24       	eor	r1, r1
  8e:	1f be       	out	0x3f, r1	; 63
  90:	cf ef       	ldi	r28, 0xFF	; 255
  92:	d0 e4       	ldi	r29, 0x40	; 64
  94:	de bf       	out	0x3e, r29	; 62
  96:	cd bf       	out	0x3d, r28	; 61

00000098 <__do_copy_data>:
  98:	14 e0       	ldi	r17, 0x04	; 4
  9a:	a0 e0       	ldi	r26, 0x00	; 0
  9c:	b1 e0       	ldi	r27, 0x01	; 1
  9e:	e0 e5       	ldi	r30, 0x50	; 80
  a0:	fa e0       	ldi	r31, 0x0A	; 10
  a2:	00 e0       	ldi	r16, 0x00	; 0
  a4:	0b bf       	out	0x3b, r16	; 59
  a6:	02 c0       	rjmp	.+4      	; 0xac <__do_copy_data+0x14>
  a8:	07 90       	elpm	r0, Z+
  aa:	0d 92       	st	X+, r0
  ac:	a0 3c       	cpi	r26, 0xC0	; 192
  ae:	b1 07       	cpc	r27, r17
  b0:	d9 f7       	brne	.-10     	; 0xa8 <__do_copy_data+0x10>

000000b2 <__do_clear_bss>:
  b2:	28 e0       	ldi	r18, 0x08	; 8
  b4:	a0 ec       	ldi	r26, 0xC0	; 192
  b6:	b4 e0       	ldi	r27, 0x04	; 4
  b8:	01 c0       	rjmp	.+2      	; 0xbc <.do_clear_bss_start>

000000ba <.do_clear_bss_loop>:
  ba:	1d 92       	st	X+, r1

000000bc <.do_clear_bss_start>:
  bc:	ac 3a       	cpi	r26, 0xAC	; 172
  be:	b2 07       	cpc	r27, r18
  c0:	e1 f7       	brne	.-8      	; 0xba <.do_clear_bss_loop>
  c2:	0e 94 e5 04 	call	0x9ca	; 0x9ca <main>
  c6:	0c 94 26 05 	jmp	0xa4c	; 0xa4c <_exit>

000000ca <__bad_interrupt>:
  ca:	0c 94 00 00 	jmp	0	; 0x0 <__vectors>

000000ce <l74hc165_init>:
/*
 * init the shift register
 */
void l74hc165_init() {
	//output
	L74HC165_DDR |= (1 << L74HC165_CLOCKPIN);
  ce:	24 9a       	sbi	0x04, 4	; 4
	L74HC165_DDR |= (1 << L74HC165_LOADPIN);
  d0:	20 9a       	sbi	0x04, 0	; 4
	//input
	L74HC165_DDR &= ~(1 << L74HC165_DATAPIN);
  d2:	26 98       	cbi	0x04, 6	; 4
	//low
	L74HC165_PORT &= ~(1 << L74HC165_CLOCKPIN);
  d4:	2c 98       	cbi	0x05, 4	; 5
	L74HC165_PORT &= ~(1 << L74HC165_LOADPIN);
  d6:	28 98       	cbi	0x05, 0	; 5
  d8:	08 95       	ret

000000da <l74hc165_shiftin>:
}

/*
 * shift in data
 */
void l74hc165_shiftin(uint8_t *bytearray) {
  da:	cf 93       	push	r28
	//parallel load to freeze the state of the data lines
	L74HC165_PORT &= ~(1 << L74HC165_LOADPIN);
  dc:	28 98       	cbi	0x05, 0	; 5
	#else
		//round up by default
		__ticks_dc = (uint32_t)(ceil(fabs(__tmp)));
	#endif

	__builtin_avr_delay_cycles(__ticks_dc);
  de:	40 e1       	ldi	r20, 0x10	; 16
  e0:	4a 95       	dec	r20
  e2:	f1 f7       	brne	.-4      	; 0xe0 <l74hc165_shiftin+0x6>
  e4:	00 c0       	rjmp	.+0      	; 0xe6 <l74hc165_shiftin+0xc>
	_delay_us(50);
	L74HC165_PORT |= (1 << L74HC165_LOADPIN);
  e6:	28 9a       	sbi	0x05, 0	; 5
  e8:	e8 2f       	mov	r30, r24
  ea:	f9 2f       	mov	r31, r25
  ec:	72 e0       	ldi	r23, 0x02	; 2
}

/*
 * shift in data
 */
void l74hc165_shiftin(uint8_t *bytearray) {
  ee:	c7 e0       	ldi	r28, 0x07	; 7
  f0:	b0 e0       	ldi	r27, 0x00	; 0
  f2:	a0 e0       	ldi	r26, 0x00	; 0
  f4:	17 c0       	rjmp	.+46     	; 0x124 <l74hc165_shiftin+0x4a>
	L74HC165_PORT |= (1 << L74HC165_LOADPIN);
	for(uint8_t i = 0; i < L74HC165_ICNUMBER; i++){
		//iterate through the bits in each registers
		uint8_t currentbyte = 0;
		for(uint8_t j = 0; j < 8; j++){
			currentbyte |= ((L74HC165_PIN & (1 << L74HC165_DATAPIN))>>L74HC165_DATAPIN)<<(7-j);
  f6:	43 b1       	in	r20, 0x03	; 3
  f8:	46 fb       	bst	r20, 6
  fa:	22 27       	eor	r18, r18
  fc:	20 f9       	bld	r18, 0
  fe:	30 e0       	ldi	r19, 0x00	; 0
 100:	a9 01       	movw	r20, r18
 102:	08 2e       	mov	r0, r24
 104:	02 c0       	rjmp	.+4      	; 0x10a <l74hc165_shiftin+0x30>
 106:	44 0f       	add	r20, r20
 108:	55 1f       	adc	r21, r21
 10a:	0a 94       	dec	r0
 10c:	e2 f7       	brpl	.-8      	; 0x106 <l74hc165_shiftin+0x2c>
 10e:	64 2b       	or	r22, r20
	        //get next
			L74HC165_PORT |= (1 << L74HC165_CLOCKPIN);
 110:	2c 9a       	sbi	0x05, 4	; 5
 112:	00 c0       	rjmp	.+0      	; 0x114 <l74hc165_shiftin+0x3a>
 114:	00 c0       	rjmp	.+0      	; 0x116 <l74hc165_shiftin+0x3c>
 116:	00 00       	nop
	        _delay_us(5);
	        L74HC165_PORT &= ~(1 << L74HC165_CLOCKPIN);
 118:	2c 98       	cbi	0x05, 4	; 5
 11a:	01 97       	sbiw	r24, 0x01	; 1
 11c:	60 f7       	brcc	.-40     	; 0xf6 <l74hc165_shiftin+0x1c>
		}
		memcpy(&bytearray[i], &currentbyte, 1);
 11e:	61 93       	st	Z+, r22
 120:	71 50       	subi	r23, 0x01	; 1
void l74hc165_shiftin(uint8_t *bytearray) {
	//parallel load to freeze the state of the data lines
	L74HC165_PORT &= ~(1 << L74HC165_LOADPIN);
	_delay_us(50);
	L74HC165_PORT |= (1 << L74HC165_LOADPIN);
	for(uint8_t i = 0; i < L74HC165_ICNUMBER; i++){
 122:	21 f0       	breq	.+8      	; 0x12c <l74hc165_shiftin+0x52>
}

/*
 * shift in data
 */
void l74hc165_shiftin(uint8_t *bytearray) {
 124:	8c 2f       	mov	r24, r28
 126:	9b 2f       	mov	r25, r27
 128:	6a 2f       	mov	r22, r26
 12a:	e5 cf       	rjmp	.-54     	; 0xf6 <l74hc165_shiftin+0x1c>
	        _delay_us(5);
	        L74HC165_PORT &= ~(1 << L74HC165_CLOCKPIN);
		}
		memcpy(&bytearray[i], &currentbyte, 1);
	}
}
 12c:	cf 91       	pop	r28
 12e:	08 95       	ret

00000130 <setup_4_buttons>:

void setup_4_buttons()
{	
	
	//set inputs
	DDRLEFT &= ~(1 << LEFT);
 130:	56 98       	cbi	0x0a, 6	; 10
	DDRPORT3 &= ~(1 << RIGHT);
 132:	21 98       	cbi	0x04, 1	; 4
	DDRPORT3 &= ~(1 << UP);
 134:	22 98       	cbi	0x04, 2	; 4
	DDRPORT3 &= ~(1 << DOWN);
 136:	23 98       	cbi	0x04, 3	; 4
	
	//enable pull-up
	PORTLEFT |= (1 << LEFT);
 138:	5e 9a       	sbi	0x0b, 6	; 11
	PORT3 |= (1 << RIGHT) | (1 << DOWN) | (1 << UP);
 13a:	85 b1       	in	r24, 0x05	; 5
 13c:	8e 60       	ori	r24, 0x0E	; 14
 13e:	85 b9       	out	0x05, r24	; 5
 140:	08 95       	ret

00000142 <navigate_menu>:
}

void navigate_menu()
{
	if(buttons[2])
 142:	80 91 7d 05 	lds	r24, 0x057D
 146:	88 23       	and	r24, r24
 148:	39 f0       	breq	.+14     	; 0x158 <navigate_menu+0x16>
		currentmenu->selected++;
 14a:	e0 91 91 07 	lds	r30, 0x0791
 14e:	f0 91 92 07 	lds	r31, 0x0792
 152:	82 81       	ldd	r24, Z+2	; 0x02
 154:	8f 5f       	subi	r24, 0xFF	; 255
 156:	82 83       	std	Z+2, r24	; 0x02
	if(buttons[1])
 158:	80 91 7c 05 	lds	r24, 0x057C
 15c:	88 23       	and	r24, r24
 15e:	39 f0       	breq	.+14     	; 0x16e <navigate_menu+0x2c>
		currentmenu->selected--;
 160:	e0 91 91 07 	lds	r30, 0x0791
 164:	f0 91 92 07 	lds	r31, 0x0792
 168:	82 81       	ldd	r24, Z+2	; 0x02
 16a:	81 50       	subi	r24, 0x01	; 1
 16c:	82 83       	std	Z+2, r24	; 0x02
		
	if(buttons[3])
 16e:	80 91 7e 05 	lds	r24, 0x057E
 172:	88 23       	and	r24, r24
 174:	f1 f0       	breq	.+60     	; 0x1b2 <navigate_menu+0x70>
	{
		//set submenu's parent
		currentmenu->submenu[currentmenu->selected]->parent = currentmenu;
 176:	e0 91 91 07 	lds	r30, 0x0791
 17a:	f0 91 92 07 	lds	r31, 0x0792
 17e:	a2 81       	ldd	r26, Z+2	; 0x02
 180:	b0 e0       	ldi	r27, 0x00	; 0
 182:	aa 0f       	add	r26, r26
 184:	bb 1f       	adc	r27, r27
 186:	ae 0f       	add	r26, r30
 188:	bf 1f       	adc	r27, r31
 18a:	17 96       	adiw	r26, 0x07	; 7
 18c:	0d 90       	ld	r0, X+
 18e:	bc 91       	ld	r27, X
 190:	a0 2d       	mov	r26, r0
 192:	50 96       	adiw	r26, 0x10	; 16
 194:	fc 93       	st	X, r31
 196:	ee 93       	st	-X, r30
 198:	1f 97       	sbiw	r26, 0x0f	; 15
		//set current menu as selected submenu
		currentmenu = currentmenu->submenu[currentmenu->selected];
 19a:	82 81       	ldd	r24, Z+2	; 0x02
 19c:	90 e0       	ldi	r25, 0x00	; 0
 19e:	88 0f       	add	r24, r24
 1a0:	99 1f       	adc	r25, r25
 1a2:	e8 0f       	add	r30, r24
 1a4:	f9 1f       	adc	r31, r25
 1a6:	87 81       	ldd	r24, Z+7	; 0x07
 1a8:	90 85       	ldd	r25, Z+8	; 0x08
 1aa:	90 93 92 07 	sts	0x0792, r25
 1ae:	80 93 91 07 	sts	0x0791, r24
	}
		
		
	if(buttons[0])
 1b2:	80 91 7b 05 	lds	r24, 0x057B
 1b6:	88 23       	and	r24, r24
 1b8:	51 f0       	breq	.+20     	; 0x1ce <navigate_menu+0x8c>
		currentmenu = currentmenu->parent;
 1ba:	e0 91 91 07 	lds	r30, 0x0791
 1be:	f0 91 92 07 	lds	r31, 0x0792
 1c2:	87 85       	ldd	r24, Z+15	; 0x0f
 1c4:	90 89       	ldd	r25, Z+16	; 0x10
 1c6:	90 93 92 07 	sts	0x0792, r25
 1ca:	80 93 91 07 	sts	0x0791, r24
 1ce:	08 95       	ret

000001d0 <setup_menu>:
}


void setup_menu()
{
 1d0:	0f 93       	push	r16
 1d2:	1f 93       	push	r17
 1d4:	cf 93       	push	r28
 1d6:	df 93       	push	r29
	filtersmenu.title = "Filters";
 1d8:	00 ec       	ldi	r16, 0xC0	; 192
 1da:	14 e0       	ldi	r17, 0x04	; 4
 1dc:	83 e1       	ldi	r24, 0x13	; 19
 1de:	92 e0       	ldi	r25, 0x02	; 2
 1e0:	d8 01       	movw	r26, r16
 1e2:	8d 93       	st	X+, r24
 1e4:	9c 93       	st	X, r25
	
	lfomenu.title = "LFO";
 1e6:	21 ed       	ldi	r18, 0xD1	; 209
 1e8:	34 e0       	ldi	r19, 0x04	; 4
 1ea:	8b e1       	ldi	r24, 0x1B	; 27
 1ec:	92 e0       	ldi	r25, 0x02	; 2
 1ee:	e9 01       	movw	r28, r18
 1f0:	99 83       	std	Y+1, r25	; 0x01
 1f2:	88 83       	st	Y, r24
	lfomenu.submenu[0] = &waveformmenu;
 1f4:	a4 e0       	ldi	r26, 0x04	; 4
 1f6:	b5 e0       	ldi	r27, 0x05	; 5
 1f8:	b0 93 d9 04 	sts	0x04D9, r27
 1fc:	a0 93 d8 04 	sts	0x04D8, r26
	lfomenu.submenu[1] = &levelmenu;
 200:	e3 ef       	ldi	r30, 0xF3	; 243
 202:	f4 e0       	ldi	r31, 0x04	; 4
 204:	f0 93 db 04 	sts	0x04DB, r31
 208:	e0 93 da 04 	sts	0x04DA, r30
	
	waveformmenu.title = "Waveform";
 20c:	8f e1       	ldi	r24, 0x1F	; 31
 20e:	92 e0       	ldi	r25, 0x02	; 2
 210:	11 96       	adiw	r26, 0x01	; 1
 212:	9c 93       	st	X, r25
 214:	8e 93       	st	-X, r24
	levelmenu.title = "Level";
 216:	88 e2       	ldi	r24, 0x28	; 40
 218:	92 e0       	ldi	r25, 0x02	; 2
 21a:	91 83       	std	Z+1, r25	; 0x01
 21c:	80 83       	st	Z, r24
	
	osc1menu.title = "Oscillator 1";
 21e:	65 e1       	ldi	r22, 0x15	; 21
 220:	75 e0       	ldi	r23, 0x05	; 5
 222:	8e e2       	ldi	r24, 0x2E	; 46
 224:	92 e0       	ldi	r25, 0x02	; 2
 226:	eb 01       	movw	r28, r22
 228:	99 83       	std	Y+1, r25	; 0x01
 22a:	88 83       	st	Y, r24
	osc1menu.submenu[0] = &waveformmenu;
 22c:	b0 93 1d 05 	sts	0x051D, r27
 230:	a0 93 1c 05 	sts	0x051C, r26
	osc1menu.submenu[1] = &levelmenu;
 234:	f0 93 1f 05 	sts	0x051F, r31
 238:	e0 93 1e 05 	sts	0x051E, r30
	
	osc2menu.title = "Oscillator 2";
 23c:	42 ee       	ldi	r20, 0xE2	; 226
 23e:	54 e0       	ldi	r21, 0x04	; 4
 240:	8b e3       	ldi	r24, 0x3B	; 59
 242:	92 e0       	ldi	r25, 0x02	; 2
 244:	ea 01       	movw	r28, r20
 246:	99 83       	std	Y+1, r25	; 0x01
 248:	88 83       	st	Y, r24
	osc2menu.submenu[0] = &waveformmenu;
 24a:	b0 93 ea 04 	sts	0x04EA, r27
 24e:	a0 93 e9 04 	sts	0x04E9, r26
	osc2menu.submenu[1] = &levelmenu;
 252:	f0 93 ec 04 	sts	0x04EC, r31
 256:	e0 93 eb 04 	sts	0x04EB, r30
	
	oscmenu.title = "Oscillators";
 25a:	86 e2       	ldi	r24, 0x26	; 38
 25c:	95 e0       	ldi	r25, 0x05	; 5
 25e:	e8 e4       	ldi	r30, 0x48	; 72
 260:	f2 e0       	ldi	r31, 0x02	; 2
 262:	dc 01       	movw	r26, r24
 264:	ed 93       	st	X+, r30
 266:	fc 93       	st	X, r31
	oscmenu.submenu[0] = &osc1menu;
 268:	70 93 2e 05 	sts	0x052E, r23
 26c:	60 93 2d 05 	sts	0x052D, r22
	oscmenu.submenu[1] = &osc2menu;
 270:	50 93 30 05 	sts	0x0530, r21
 274:	40 93 2f 05 	sts	0x052F, r20
	oscmenu.submenu[2] = &lfomenu;
 278:	30 93 32 05 	sts	0x0532, r19
 27c:	20 93 31 05 	sts	0x0531, r18
	
	//strcpy(attack->title, "attack");
	attack.title = "Attack";
 280:	2a e6       	ldi	r18, 0x6A	; 106
 282:	35 e0       	ldi	r19, 0x05	; 5
 284:	44 e5       	ldi	r20, 0x54	; 84
 286:	52 e0       	ldi	r21, 0x02	; 2
 288:	e9 01       	movw	r28, r18
 28a:	59 83       	std	Y+1, r21	; 0x01
 28c:	48 83       	st	Y, r20
	//attack.submenu = NULL;
	
	release.title = "Release";
 28e:	e9 e5       	ldi	r30, 0x59	; 89
 290:	f5 e0       	ldi	r31, 0x05	; 5
 292:	4b e5       	ldi	r20, 0x5B	; 91
 294:	52 e0       	ldi	r21, 0x02	; 2
 296:	51 83       	std	Z+1, r21	; 0x01
 298:	40 83       	st	Z, r20
	//release.submenu = NULL;
	
	adsrmenu.title = "ADSR";
 29a:	a8 e4       	ldi	r26, 0x48	; 72
 29c:	b5 e0       	ldi	r27, 0x05	; 5
 29e:	43 e6       	ldi	r20, 0x63	; 99
 2a0:	52 e0       	ldi	r21, 0x02	; 2
 2a2:	11 96       	adiw	r26, 0x01	; 1
 2a4:	5c 93       	st	X, r21
 2a6:	4e 93       	st	-X, r20
	adsrmenu.command = *attack_command;
 2a8:	4d e3       	ldi	r20, 0x3D	; 61
 2aa:	52 e0       	ldi	r21, 0x02	; 2
 2ac:	50 93 4c 05 	sts	0x054C, r21
 2b0:	40 93 4b 05 	sts	0x054B, r20
	adsrmenu.submenu[0] = &attack;
 2b4:	30 93 50 05 	sts	0x0550, r19
 2b8:	20 93 4f 05 	sts	0x054F, r18
	adsrmenu.submenu[1] = &release;
 2bc:	f0 93 52 05 	sts	0x0552, r31
 2c0:	e0 93 51 05 	sts	0x0551, r30
	adsrmenu.submenu[2] = NULL;		//NULL-terminate, might work without
 2c4:	10 92 54 05 	sts	0x0554, r1
 2c8:	10 92 53 05 	sts	0x0553, r1
	
	mainmenu.title = NULL;
 2cc:	e7 e3       	ldi	r30, 0x37	; 55
 2ce:	f5 e0       	ldi	r31, 0x05	; 5
 2d0:	11 82       	std	Z+1, r1	; 0x01
 2d2:	10 82       	st	Z, r1
	mainmenu.submenu[0] = &oscmenu;
 2d4:	90 93 3f 05 	sts	0x053F, r25
 2d8:	80 93 3e 05 	sts	0x053E, r24
	mainmenu.submenu[1] = &adsrmenu;
 2dc:	b0 93 41 05 	sts	0x0541, r27
 2e0:	a0 93 40 05 	sts	0x0540, r26
	mainmenu.submenu[2] = &filtersmenu;
 2e4:	10 93 43 05 	sts	0x0543, r17
 2e8:	00 93 42 05 	sts	0x0542, r16
	
	currentmenu = &mainmenu;
 2ec:	f0 93 92 07 	sts	0x0792, r31
 2f0:	e0 93 91 07 	sts	0x0791, r30
}
 2f4:	df 91       	pop	r29
 2f6:	cf 91       	pop	r28
 2f8:	1f 91       	pop	r17
 2fa:	0f 91       	pop	r16
 2fc:	08 95       	ret

000002fe <read_4_buttons>:


void read_4_buttons()
{
	//left is pressed
	if(PINLEFT & (1 << LEFT))
 2fe:	4e 9b       	sbis	0x09, 6	; 9
 300:	03 c0       	rjmp	.+6      	; 0x308 <read_4_buttons+0xa>
		buttons[0] = 0;
 302:	10 92 7b 05 	sts	0x057B, r1
 306:	03 c0       	rjmp	.+6      	; 0x30e <read_4_buttons+0x10>
	else
		buttons[0] = 1;
 308:	81 e0       	ldi	r24, 0x01	; 1
 30a:	80 93 7b 05 	sts	0x057B, r24
		
	if(PIN3 & (1 << RIGHT))
 30e:	19 9b       	sbis	0x03, 1	; 3
 310:	03 c0       	rjmp	.+6      	; 0x318 <read_4_buttons+0x1a>
		buttons[1] = 0;
 312:	10 92 7c 05 	sts	0x057C, r1
 316:	03 c0       	rjmp	.+6      	; 0x31e <read_4_buttons+0x20>
	else
		buttons[1] = 1;
 318:	81 e0       	ldi	r24, 0x01	; 1
 31a:	80 93 7c 05 	sts	0x057C, r24

	if(PIN3 & (1 << UP))
 31e:	1a 9b       	sbis	0x03, 2	; 3
 320:	03 c0       	rjmp	.+6      	; 0x328 <read_4_buttons+0x2a>
		buttons[2] = 0;
 322:	10 92 7d 05 	sts	0x057D, r1
 326:	03 c0       	rjmp	.+6      	; 0x32e <read_4_buttons+0x30>
	else
		buttons[2] = 1;
 328:	81 e0       	ldi	r24, 0x01	; 1
 32a:	80 93 7d 05 	sts	0x057D, r24

	if(PIN3 & (1 << DOWN))
 32e:	1b 9b       	sbis	0x03, 3	; 3
 330:	03 c0       	rjmp	.+6      	; 0x338 <read_4_buttons+0x3a>
		buttons[3] = 0;
 332:	10 92 7e 05 	sts	0x057E, r1
 336:	03 c0       	rjmp	.+6      	; 0x33e <read_4_buttons+0x40>
	else
		buttons[3] = 1;
 338:	81 e0       	ldi	r24, 0x01	; 1
 33a:	80 93 7e 05 	sts	0x057E, r24
		
	if(buttons[0])
 33e:	80 91 7b 05 	lds	r24, 0x057B
 342:	88 23       	and	r24, r24
 344:	31 f0       	breq	.+12     	; 0x352 <read_4_buttons+0x54>
		current_menu = main_menu;
 346:	8a e0       	ldi	r24, 0x0A	; 10
 348:	91 e0       	ldi	r25, 0x01	; 1
 34a:	90 93 01 01 	sts	0x0101, r25
 34e:	80 93 00 01 	sts	0x0100, r24
	if(buttons[3])
 352:	80 91 7e 05 	lds	r24, 0x057E
 356:	88 23       	and	r24, r24
 358:	31 f0       	breq	.+12     	; 0x366 <read_4_buttons+0x68>
	    current_menu = adsr_menu;
 35a:	82 e0       	ldi	r24, 0x02	; 2
 35c:	91 e0       	ldi	r25, 0x01	; 1
 35e:	90 93 01 01 	sts	0x0101, r25
 362:	80 93 00 01 	sts	0x0100, r24
 366:	08 95       	ret

00000368 <LCD_write_command>:
void LCD_write_command(uint8_t byte)
{
	uint8_t i;
	
	//set CE low (chip enable, inverted input)
	LCD_PORT &= ~(1<<CE);
 368:	5c 98       	cbi	0x0b, 4	; 11
	
	//tell the display it's a command or data
	LCD_PORT &= ~(1<<DC);
 36a:	58 98       	cbi	0x0b, 0	; 11
 36c:	98 e0       	ldi	r25, 0x08	; 8
	for (i = 0; i < 8; i++)
	{

		// consider leftmost bit
		// set line high if bit is 1, low if bit is 0
		if (byte & 0x80)
 36e:	88 23       	and	r24, r24
 370:	14 f4       	brge	.+4      	; 0x376 <LCD_write_command+0xe>
		LCD_PORT |= (1<<DIN);
 372:	5f 9a       	sbi	0x0b, 7	; 11
 374:	01 c0       	rjmp	.+2      	; 0x378 <LCD_write_command+0x10>
		else
		LCD_PORT &= ~(1<<DIN);
 376:	5f 98       	cbi	0x0b, 7	; 11
		
		// pulse clock to indicate that bit value should be read
		LCD_PORT &= ~(1<<CLK);
 378:	5d 98       	cbi	0x0b, 5	; 11
		// shift byte left so next bit will be leftmost
		byte <<= 1;
 37a:	88 0f       	add	r24, r24
		LCD_PORT |= (1<<CLK);
 37c:	5d 9a       	sbi	0x0b, 5	; 11
 37e:	91 50       	subi	r25, 0x01	; 1
	LCD_PORT &= ~(1<<CE);
	
	//tell the display it's a command or data
	LCD_PORT &= ~(1<<DC);
	
	for (i = 0; i < 8; i++)
 380:	b1 f7       	brne	.-20     	; 0x36e <LCD_write_command+0x6>
		byte <<= 1;
		LCD_PORT |= (1<<CLK);
	}
	
	//set CE high
	LCD_PORT |= (1<<CE);
 382:	5c 9a       	sbi	0x0b, 4	; 11
 384:	08 95       	ret

00000386 <LCD_write_char>:

	for (line=0; line<6; line++)
	{
		//LCD_Write_data_at(x,y,font6x8[c-0x20][line], inverted);
		if(inverted)
		  lcd_buffer[x*6+y*WIDTH+line] = ~font6x8[c-0x20][line];
 386:	90 e0       	ldi	r25, 0x00	; 0
 388:	fc 01       	movw	r30, r24
 38a:	ee 0f       	add	r30, r30
 38c:	ff 1f       	adc	r31, r31
 38e:	8e 0f       	add	r24, r30
 390:	9f 1f       	adc	r25, r31
 392:	fc 01       	movw	r30, r24
 394:	ee 0f       	add	r30, r30
 396:	ff 1f       	adc	r31, r31
 398:	84 e5       	ldi	r24, 0x54	; 84
 39a:	68 9f       	mul	r22, r24
 39c:	e0 0d       	add	r30, r0
 39e:	f1 1d       	adc	r31, r1
 3a0:	11 24       	eor	r1, r1
 3a2:	a4 2f       	mov	r26, r20
 3a4:	b0 e0       	ldi	r27, 0x00	; 0
 3a6:	90 97       	sbiw	r26, 0x20	; 32
 3a8:	cd 01       	movw	r24, r26
 3aa:	88 0f       	add	r24, r24
 3ac:	99 1f       	adc	r25, r25
 3ae:	a8 0f       	add	r26, r24
 3b0:	b9 1f       	adc	r27, r25
 3b2:	aa 0f       	add	r26, r26
 3b4:	bb 1f       	adc	r27, r27
 3b6:	a9 56       	subi	r26, 0x69	; 105
 3b8:	bd 4f       	sbci	r27, 0xFD	; 253
 3ba:	e7 56       	subi	r30, 0x67	; 103
 3bc:	fa 4f       	sbci	r31, 0xFA	; 250

void LCD_write_char(uint8_t x, uint8_t y, uint8_t c, uint8_t inverted)
{
	uint8_t line;

	for (line=0; line<6; line++)
 3be:	80 e0       	ldi	r24, 0x00	; 0
	{
		//LCD_Write_data_at(x,y,font6x8[c-0x20][line], inverted);
		if(inverted)
 3c0:	22 23       	and	r18, r18
 3c2:	21 f0       	breq	.+8      	; 0x3cc <LCD_write_char+0x46>
		  lcd_buffer[x*6+y*WIDTH+line] = ~font6x8[c-0x20][line];
 3c4:	9c 91       	ld	r25, X
 3c6:	90 95       	com	r25
 3c8:	90 83       	st	Z, r25
 3ca:	02 c0       	rjmp	.+4      	; 0x3d0 <LCD_write_char+0x4a>
		else
		  lcd_buffer[x*6+y*WIDTH+line] = font6x8[c-0x20][line];
 3cc:	9c 91       	ld	r25, X
 3ce:	90 83       	st	Z, r25

void LCD_write_char(uint8_t x, uint8_t y, uint8_t c, uint8_t inverted)
{
	uint8_t line;

	for (line=0; line<6; line++)
 3d0:	8f 5f       	subi	r24, 0xFF	; 255
 3d2:	11 96       	adiw	r26, 0x01	; 1
 3d4:	31 96       	adiw	r30, 0x01	; 1
 3d6:	86 30       	cpi	r24, 0x06	; 6
 3d8:	99 f7       	brne	.-26     	; 0x3c0 <LCD_write_char+0x3a>
		  lcd_buffer[x*6+y*WIDTH+line] = ~font6x8[c-0x20][line];
		else
		  lcd_buffer[x*6+y*WIDTH+line] = font6x8[c-0x20][line];
	}
	
}
 3da:	08 95       	ret

000003dc <LCD_write_string>:
	//set CE high
	LCD_PORT |= (1<<CE);
}

void LCD_write_string(uint8_t x, uint8_t y, char *s, uint8_t inverted)
{
 3dc:	bf 92       	push	r11
 3de:	cf 92       	push	r12
 3e0:	df 92       	push	r13
 3e2:	ef 92       	push	r14
 3e4:	ff 92       	push	r15
 3e6:	0f 93       	push	r16
 3e8:	1f 93       	push	r17
 3ea:	cf 93       	push	r28
 3ec:	df 93       	push	r29
 3ee:	ea 01       	movw	r28, r20
	uint8_t i = 0;
	while (*s)
 3f0:	48 81       	ld	r20, Y
 3f2:	44 23       	and	r20, r20
 3f4:	c9 f0       	breq	.+50     	; 0x428 <LCD_write_string+0x4c>
 3f6:	21 96       	adiw	r28, 0x01	; 1
	LCD_PORT |= (1<<CE);
}

void LCD_write_string(uint8_t x, uint8_t y, char *s, uint8_t inverted)
{
	uint8_t i = 0;
 3f8:	90 e0       	ldi	r25, 0x00	; 0
	while (*s)
	{
		LCD_write_char(x + i++, y, *s++, inverted);
 3fa:	c2 2e       	mov	r12, r18
 3fc:	d1 2c       	mov	r13, r1
 3fe:	e6 2e       	mov	r14, r22
 400:	f1 2c       	mov	r15, r1
 402:	08 2f       	mov	r16, r24
 404:	10 e0       	ldi	r17, 0x00	; 0
 406:	bb 24       	eor	r11, r11
 408:	b3 94       	inc	r11
 40a:	b9 0e       	add	r11, r25
 40c:	50 e0       	ldi	r21, 0x00	; 0
 40e:	96 01       	movw	r18, r12
 410:	b7 01       	movw	r22, r14
 412:	f8 01       	movw	r30, r16
 414:	e9 0f       	add	r30, r25
 416:	f1 1d       	adc	r31, r1
 418:	cf 01       	movw	r24, r30
 41a:	0e 94 c3 01 	call	0x386	; 0x386 <LCD_write_char>
}

void LCD_write_string(uint8_t x, uint8_t y, char *s, uint8_t inverted)
{
	uint8_t i = 0;
	while (*s)
 41e:	49 91       	ld	r20, Y+
 420:	44 23       	and	r20, r20
 422:	11 f0       	breq	.+4      	; 0x428 <LCD_write_string+0x4c>
	{
		LCD_write_char(x + i++, y, *s++, inverted);
 424:	9b 2d       	mov	r25, r11
 426:	ef cf       	rjmp	.-34     	; 0x406 <LCD_write_string+0x2a>
	}
}
 428:	df 91       	pop	r29
 42a:	cf 91       	pop	r28
 42c:	1f 91       	pop	r17
 42e:	0f 91       	pop	r16
 430:	ff 90       	pop	r15
 432:	ef 90       	pop	r14
 434:	df 90       	pop	r13
 436:	cf 90       	pop	r12
 438:	bf 90       	pop	r11
 43a:	08 95       	ret

0000043c <LCD_write_buffer>:
{
	uint8_t i;
	uint16_t j;
	
	//set CE low (chip enable, inverted input)
	LCD_PORT &= ~(1<<CE);
 43c:	5c 98       	cbi	0x0b, 4	; 11
	
	LCD_PORT |= (1<<DC);
 43e:	58 9a       	sbi	0x0b, 0	; 11
 440:	a9 e9       	ldi	r26, 0x99	; 153
 442:	b5 e0       	ldi	r27, 0x05	; 5
 444:	81 e9       	ldi	r24, 0x91	; 145
 446:	97 e0       	ldi	r25, 0x07	; 7
	LCD_clear_buffer();
	LCD_write_buffer();
}

void LCD_write_buffer()
{
 448:	48 e0       	ldi	r20, 0x08	; 8
 44a:	12 c0       	rjmp	.+36     	; 0x470 <LCD_write_buffer+0x34>
	{
		for (i = 0; i < 8; i++)
		{
			// consider leftmost bit
			// set line high if bit is 1, low if bit is 0
			if (lcd_buffer[j] & 0x80)
 44c:	3c 91       	ld	r19, X
 44e:	33 23       	and	r19, r19
 450:	14 f4       	brge	.+4      	; 0x456 <LCD_write_buffer+0x1a>
			LCD_PORT |= (1<<DIN);
 452:	5f 9a       	sbi	0x0b, 7	; 11
 454:	01 c0       	rjmp	.+2      	; 0x458 <LCD_write_buffer+0x1c>
			else
			LCD_PORT &= ~(1<<DIN);
 456:	5f 98       	cbi	0x0b, 7	; 11
			
			// pulse clock to indicate that bit value should be read
			LCD_PORT &= ~(1<<CLK);
 458:	5d 98       	cbi	0x0b, 5	; 11
			// shift byte left so next bit will be leftmost
			lcd_buffer[j] <<= 1;
 45a:	30 81       	ld	r19, Z
 45c:	33 0f       	add	r19, r19
 45e:	30 83       	st	Z, r19
			//_delay_us(10);
			asm("nop");
 460:	00 00       	nop
			LCD_PORT |= (1<<CLK);
 462:	5d 9a       	sbi	0x0b, 5	; 11
 464:	21 50       	subi	r18, 0x01	; 1
	LCD_PORT &= ~(1<<CE);
	
	LCD_PORT |= (1<<DC);
	for (j=0;j<504;j++)
	{
		for (i = 0; i < 8; i++)
 466:	91 f7       	brne	.-28     	; 0x44c <LCD_write_buffer+0x10>
 468:	11 96       	adiw	r26, 0x01	; 1
	
	//set CE low (chip enable, inverted input)
	LCD_PORT &= ~(1<<CE);
	
	LCD_PORT |= (1<<DC);
	for (j=0;j<504;j++)
 46a:	a8 17       	cp	r26, r24
 46c:	b9 07       	cpc	r27, r25
 46e:	19 f0       	breq	.+6      	; 0x476 <LCD_write_buffer+0x3a>
	LCD_clear_buffer();
	LCD_write_buffer();
}

void LCD_write_buffer()
{
 470:	24 2f       	mov	r18, r20
 472:	fd 01       	movw	r30, r26
 474:	eb cf       	rjmp	.-42     	; 0x44c <LCD_write_buffer+0x10>
			asm("nop");
			LCD_PORT |= (1<<CLK);
		}
	}
	//set CE high
	LCD_PORT |= (1<<CE);
 476:	5c 9a       	sbi	0x0b, 4	; 11
 478:	08 95       	ret

0000047a <attack_command>:
menu lfomenu = {NULL, 0, NULL, 0, NULL};
menu filtersmenu = {NULL, 0, NULL, 0, NULL};

void attack_command()
{
	LCD_write_string(0,0,"BAAAAJS",0);
 47a:	20 e0       	ldi	r18, 0x00	; 0
 47c:	30 e0       	ldi	r19, 0x00	; 0
 47e:	48 e6       	ldi	r20, 0x68	; 104
 480:	52 e0       	ldi	r21, 0x02	; 2
 482:	60 e0       	ldi	r22, 0x00	; 0
 484:	70 e0       	ldi	r23, 0x00	; 0
 486:	80 e0       	ldi	r24, 0x00	; 0
 488:	90 e0       	ldi	r25, 0x00	; 0
 48a:	0e 94 ee 01 	call	0x3dc	; 0x3dc <LCD_write_string>
	LCD_write_buffer();
 48e:	0e 94 1e 02 	call	0x43c	; 0x43c <LCD_write_buffer>
 492:	08 95       	ret

00000494 <LCD_clear_buffer>:
		lcd_buffer[i] = 0xff;
	}
}

void LCD_clear_buffer()
{
 494:	e9 e9       	ldi	r30, 0x99	; 153
 496:	f5 e0       	ldi	r31, 0x05	; 5
 498:	81 e9       	ldi	r24, 0x91	; 145
 49a:	97 e0       	ldi	r25, 0x07	; 7
	for (uint16_t i=0;i<504;i++)
	{
		lcd_buffer[i] = 0x00;
 49c:	11 92       	st	Z+, r1
	}
}

void LCD_clear_buffer()
{
	for (uint16_t i=0;i<504;i++)
 49e:	e8 17       	cp	r30, r24
 4a0:	f9 07       	cpc	r31, r25
 4a2:	e1 f7       	brne	.-8      	; 0x49c <LCD_clear_buffer+0x8>
	{
		lcd_buffer[i] = 0x00;
	}
}
 4a4:	08 95       	ret

000004a6 <LCD_clear>:
	
}

void LCD_clear()          // clear the LCD
{
	LCD_clear_buffer();
 4a6:	0e 94 4a 02 	call	0x494	; 0x494 <LCD_clear_buffer>
	LCD_write_buffer();
 4aa:	0e 94 1e 02 	call	0x43c	; 0x43c <LCD_write_buffer>
 4ae:	08 95       	ret

000004b0 <LCD_init>:
}

void LCD_init()
{
	//try some shit
	LCD_DDR = 0xFF;
 4b0:	8f ef       	ldi	r24, 0xFF	; 255
 4b2:	8a b9       	out	0x0a, r24	; 10
	LCD_PORT &= ~(1<<RST);
 4b4:	5a 98       	cbi	0x0b, 2	; 11
	#else
		//round up by default
		__ticks_dc = (uint32_t)(ceil(fabs(__tmp)));
	#endif

	__builtin_avr_delay_cycles(__ticks_dc);
 4b6:	87 ea       	ldi	r24, 0xA7	; 167
 4b8:	91 e6       	ldi	r25, 0x61	; 97
 4ba:	01 97       	sbiw	r24, 0x01	; 1
 4bc:	f1 f7       	brne	.-4      	; 0x4ba <LCD_init+0xa>
 4be:	00 c0       	rjmp	.+0      	; 0x4c0 <LCD_init+0x10>
 4c0:	00 00       	nop
	_delay_ms(100);
	LCD_PORT |= (1<<RST);
 4c2:	5a 9a       	sbi	0x0b, 2	; 11
	LCD_PORT &= ~(1<<CE);
 4c4:	5c 98       	cbi	0x0b, 4	; 11
 4c6:	81 ee       	ldi	r24, 0xE1	; 225
 4c8:	94 e0       	ldi	r25, 0x04	; 4
 4ca:	01 97       	sbiw	r24, 0x01	; 1
 4cc:	f1 f7       	brne	.-4      	; 0x4ca <LCD_init+0x1a>
 4ce:	00 c0       	rjmp	.+0      	; 0x4d0 <LCD_init+0x20>
 4d0:	00 00       	nop
	_delay_ms(5);
	LCD_PORT &= ~(1<<RST);
 4d2:	5a 98       	cbi	0x0b, 2	; 11
	asm("nop");
 4d4:	00 00       	nop
	LCD_PORT |= (1<<RST);
 4d6:	5a 9a       	sbi	0x0b, 2	; 11
	//DDRD |= 0xff;
	
	//LCD_PORT = 0;
	
	//reset
	LCD_PORT &= ~(1<<RST);
 4d8:	5a 98       	cbi	0x0b, 2	; 11
	#else
		//round up by default
		__ticks_dc = (uint32_t)(ceil(fabs(__tmp)));
	#endif

	__builtin_avr_delay_cycles(__ticks_dc);
 4da:	00 00       	nop
	_delay_us(1);
	LCD_PORT |= (1<<RST);
 4dc:	5a 9a       	sbi	0x0b, 2	; 11
	
	LCD_PORT &= ~(1<<CE);
 4de:	5c 98       	cbi	0x0b, 4	; 11
 4e0:	00 00       	nop
	_delay_us(1);
	LCD_PORT |= (1<<CE);
 4e2:	5c 9a       	sbi	0x0b, 4	; 11
 4e4:	00 00       	nop
	_delay_us(1);
	
	LCD_PORT |= (1<<RST);
 4e6:	5a 9a       	sbi	0x0b, 2	; 11
	
	LCD_write_command(0x21);	//Tell LCD that extended commands follow
 4e8:	81 e2       	ldi	r24, 0x21	; 33
 4ea:	90 e0       	ldi	r25, 0x00	; 0
 4ec:	0e 94 b4 01 	call	0x368	; 0x368 <LCD_write_command>
	//LCD_Write(LCD_COMMAND, 0xC1);	//Set LCD Vop (Contrast): Try 0xB1(good @ 3.3V) or 0xBF if your display is too dark, funkar på första!
	LCD_write_command(0xC1);	//Set LCD Vop (Contrast): Try 0xB1(good @ 3.3V) or 0xBF if your display is too dark
 4f0:	81 ec       	ldi	r24, 0xC1	; 193
 4f2:	90 e0       	ldi	r25, 0x00	; 0
 4f4:	0e 94 b4 01 	call	0x368	; 0x368 <LCD_write_command>
	LCD_write_command(0x06);	//Set temp coeff
 4f8:	86 e0       	ldi	r24, 0x06	; 6
 4fa:	90 e0       	ldi	r25, 0x00	; 0
 4fc:	0e 94 b4 01 	call	0x368	; 0x368 <LCD_write_command>
	LCD_write_command(0x13);	//LCD bias mode 1:48: Try 0x13 or 0x14
 500:	83 e1       	ldi	r24, 0x13	; 19
 502:	90 e0       	ldi	r25, 0x00	; 0
 504:	0e 94 b4 01 	call	0x368	; 0x368 <LCD_write_command>
	
	LCD_write_command(0x20);	//We must send 0x20 before modifying the display control mode
 508:	80 e2       	ldi	r24, 0x20	; 32
 50a:	90 e0       	ldi	r25, 0x00	; 0
 50c:	0e 94 b4 01 	call	0x368	; 0x368 <LCD_write_command>
	LCD_clear();
 510:	0e 94 53 02 	call	0x4a6	; 0x4a6 <LCD_clear>
	LCD_write_command(0x0C);	//Set display control, normal mode. 0x0D for inverse, 0x0C for non-inverse
 514:	8c e0       	ldi	r24, 0x0C	; 12
 516:	90 e0       	ldi	r25, 0x00	; 0
 518:	0e 94 b4 01 	call	0x368	; 0x368 <LCD_write_command>
	//LCD_Write(LCD_COMMAND, 0x09);	//all segments on
	LCD_PORT &= ~(1<<CE);
 51c:	5c 98       	cbi	0x0b, 4	; 11
 51e:	08 95       	ret

00000520 <LCD_invert_row>:
void LCD_invert_row(uint8_t row)
{
	uint8_t i;
	for (i=0;i<WIDTH;i++)
	{
		lcd_buffer[i+WIDTH*row] = ~lcd_buffer[i+WIDTH*row];
 520:	24 e5       	ldi	r18, 0x54	; 84
 522:	82 9f       	mul	r24, r18
 524:	c0 01       	movw	r24, r0
 526:	11 24       	eor	r1, r1
 528:	fc 01       	movw	r30, r24
 52a:	e7 56       	subi	r30, 0x67	; 103
 52c:	fa 4f       	sbci	r31, 0xFA	; 250


void LCD_invert_row(uint8_t row)
{
	uint8_t i;
	for (i=0;i<WIDTH;i++)
 52e:	80 e0       	ldi	r24, 0x00	; 0
	{
		lcd_buffer[i+WIDTH*row] = ~lcd_buffer[i+WIDTH*row];
 530:	90 81       	ld	r25, Z
 532:	90 95       	com	r25
 534:	91 93       	st	Z+, r25


void LCD_invert_row(uint8_t row)
{
	uint8_t i;
	for (i=0;i<WIDTH;i++)
 536:	8f 5f       	subi	r24, 0xFF	; 255
 538:	84 35       	cpi	r24, 0x54	; 84
 53a:	d1 f7       	brne	.-12     	; 0x530 <LCD_invert_row+0x10>
	{
		lcd_buffer[i+WIDTH*row] = ~lcd_buffer[i+WIDTH*row];
	}
}
 53c:	08 95       	ret

0000053e <LCD_draw_menu>:
	}
}
*/

void LCD_draw_menu(uint8_t inverted)
{
 53e:	cf 93       	push	r28
	//struct menu * currmenu = currentmenu;
	//menu * currmenuitems = *currentmenu->submenu;
	
	uint8_t i=0;
	//for (uint8_t i=0;i<3;i++)
	while(currentmenu->submenu[i])
 540:	e0 91 91 07 	lds	r30, 0x0791
 544:	f0 91 92 07 	lds	r31, 0x0792
 548:	07 80       	ldd	r0, Z+7	; 0x07
 54a:	f0 85       	ldd	r31, Z+8	; 0x08
 54c:	e0 2d       	mov	r30, r0
 54e:	30 97       	sbiw	r30, 0x00	; 0
 550:	09 f1       	breq	.+66     	; 0x594 <LCD_draw_menu+0x56>
void LCD_draw_menu(uint8_t inverted)
{
	//struct menu * currmenu = currentmenu;
	//menu * currmenuitems = *currentmenu->submenu;
	
	uint8_t i=0;
 552:	c0 e0       	ldi	r28, 0x00	; 0
	//for (uint8_t i=0;i<3;i++)
	while(currentmenu->submenu[i])
	{
		LCD_write_string(0, i, currentmenu->submenu[i]->title, 0);
 554:	40 81       	ld	r20, Z
 556:	51 81       	ldd	r21, Z+1	; 0x01
 558:	20 e0       	ldi	r18, 0x00	; 0
 55a:	6c 2f       	mov	r22, r28
 55c:	80 e0       	ldi	r24, 0x00	; 0
 55e:	0e 94 ee 01 	call	0x3dc	; 0x3dc <LCD_write_string>
		
		if(currentmenu->selected == i)
 562:	e0 91 91 07 	lds	r30, 0x0791
 566:	f0 91 92 07 	lds	r31, 0x0792
 56a:	82 81       	ldd	r24, Z+2	; 0x02
 56c:	8c 13       	cpse	r24, r28
 56e:	02 c0       	rjmp	.+4      	; 0x574 <LCD_draw_menu+0x36>
			LCD_invert_row(i);
 570:	0e 94 90 02 	call	0x520	; 0x520 <LCD_invert_row>
		
		//LCD_write_string(0, i, currmenuitems->title, 0);
		i++;
 574:	cf 5f       	subi	r28, 0xFF	; 255
	//struct menu * currmenu = currentmenu;
	//menu * currmenuitems = *currentmenu->submenu;
	
	uint8_t i=0;
	//for (uint8_t i=0;i<3;i++)
	while(currentmenu->submenu[i])
 576:	80 91 91 07 	lds	r24, 0x0791
 57a:	90 91 92 07 	lds	r25, 0x0792
 57e:	ec 2f       	mov	r30, r28
 580:	f0 e0       	ldi	r31, 0x00	; 0
 582:	ee 0f       	add	r30, r30
 584:	ff 1f       	adc	r31, r31
 586:	e8 0f       	add	r30, r24
 588:	f9 1f       	adc	r31, r25
 58a:	07 80       	ldd	r0, Z+7	; 0x07
 58c:	f0 85       	ldd	r31, Z+8	; 0x08
 58e:	e0 2d       	mov	r30, r0
 590:	30 97       	sbiw	r30, 0x00	; 0
 592:	01 f7       	brne	.-64     	; 0x554 <LCD_draw_menu+0x16>
		i++;
		//currmenuitems++;
	}
	
	//currmenu = currmenu->submenu;
 594:	cf 91       	pop	r28
 596:	08 95       	ret

00000598 <fmul>:
uint8_t lcd_buffer[504];

uint8_t fmul(uint8_t frac, uint8_t x)
{
	//disable interrupts, bad things can and will happen otherwise!
	cli();
 598:	f8 94       	cli
	uint8_t * result =  0x01; //points to r1 where the value is stored
	uint8_t * ptr = 23;			//point to R23
	*ptr = frac;				//load frac into R23
 59a:	80 93 17 00 	sts	0x0017, r24
	ptr = 22;
	*ptr = x;
 59e:	60 93 16 00 	sts	0x0016, r22
	asm("fmul r23,r22");
 5a2:	7e 03       	fmul	r23, r22
	sei();
 5a4:	78 94       	sei
	return (uint8_t)*result;
}
 5a6:	80 91 01 00 	lds	r24, 0x0001
 5aa:	08 95       	ret

000005ac <debounce>:
}

void debounce(uint8_t key, uint8_t i)
{
	
	if(key)
 5ac:	88 23       	and	r24, r24
 5ae:	c9 f0       	breq	.+50     	; 0x5e2 <debounce+0x36>
	{
		pressed[i]++;
 5b0:	70 e0       	ldi	r23, 0x00	; 0
 5b2:	fb 01       	movw	r30, r22
 5b4:	e4 57       	subi	r30, 0x74	; 116
 5b6:	fa 4f       	sbci	r31, 0xFA	; 250
 5b8:	80 81       	ld	r24, Z
 5ba:	8f 5f       	subi	r24, 0xFF	; 255
 5bc:	80 83       	st	Z, r24
		if(pressed[i] > 20)
 5be:	85 31       	cpi	r24, 0x15	; 21
 5c0:	08 f1       	brcs	.+66     	; 0x604 <debounce+0x58>
		{
			if(deb_buttons[i] == 0)
 5c2:	fb 01       	movw	r30, r22
 5c4:	eb 56       	subi	r30, 0x6B	; 107
 5c6:	f8 4f       	sbci	r31, 0xF8	; 248
 5c8:	80 81       	ld	r24, Z
 5ca:	81 11       	cpse	r24, r1
 5cc:	05 c0       	rjmp	.+10     	; 0x5d8 <debounce+0x2c>
			{
				deb_buttons[i] = 1;
 5ce:	81 e0       	ldi	r24, 0x01	; 1
 5d0:	fb 01       	movw	r30, r22
 5d2:	eb 56       	subi	r30, 0x6B	; 107
 5d4:	f8 4f       	sbci	r31, 0xF8	; 248
 5d6:	80 83       	st	Z, r24
			}
			
			pressed[i] = 0;
 5d8:	fb 01       	movw	r30, r22
 5da:	e4 57       	subi	r30, 0x74	; 116
 5dc:	fa 4f       	sbci	r31, 0xFA	; 250
 5de:	10 82       	st	Z, r1
 5e0:	08 95       	ret
		}
		
	}
	else
	{
		released[i]++;
 5e2:	70 e0       	ldi	r23, 0x00	; 0
 5e4:	fb 01       	movw	r30, r22
 5e6:	e0 58       	subi	r30, 0x80	; 128
 5e8:	fa 4f       	sbci	r31, 0xFA	; 250
 5ea:	80 81       	ld	r24, Z
 5ec:	8f 5f       	subi	r24, 0xFF	; 255
 5ee:	80 83       	st	Z, r24
		if(released[i] > 20)
 5f0:	85 31       	cpi	r24, 0x15	; 21
 5f2:	40 f0       	brcs	.+16     	; 0x604 <debounce+0x58>
		{
			deb_buttons[i] = 0;	//set button to zero
 5f4:	fb 01       	movw	r30, r22
 5f6:	eb 56       	subi	r30, 0x6B	; 107
 5f8:	f8 4f       	sbci	r31, 0xF8	; 248
 5fa:	10 82       	st	Z, r1
			released[i] = 0;		//reset confidence
 5fc:	fb 01       	movw	r30, r22
 5fe:	e0 58       	subi	r30, 0x80	; 128
 600:	fa 4f       	sbci	r31, 0xFA	; 250
 602:	10 82       	st	Z, r1
 604:	08 95       	ret

00000606 <populate_buttons>:
	}
}

void populate_buttons()
{
	if((uint16_t)*data & 1) //4:th button
 606:	80 91 a8 07 	lds	r24, 0x07A8
 60a:	90 91 a9 07 	lds	r25, 0x07A9
 60e:	80 ff       	sbrs	r24, 0
 610:	04 c0       	rjmp	.+8      	; 0x61a <populate_buttons+0x14>
	  //buttons |= (1<<3);
	  buttons[3] = 1;
 612:	21 e0       	ldi	r18, 0x01	; 1
 614:	20 93 7e 05 	sts	0x057E, r18
 618:	02 c0       	rjmp	.+4      	; 0x61e <populate_buttons+0x18>
	else
	  buttons[3] = 0;
 61a:	10 92 7e 05 	sts	0x057E, r1
	
	if((uint16_t)*data & 2)
 61e:	81 ff       	sbrs	r24, 1
 620:	04 c0       	rjmp	.+8      	; 0x62a <populate_buttons+0x24>
	  //buttons |= (1<<2);
	  buttons[2] = 1;
 622:	21 e0       	ldi	r18, 0x01	; 1
 624:	20 93 7d 05 	sts	0x057D, r18
 628:	02 c0       	rjmp	.+4      	; 0x62e <populate_buttons+0x28>
	else
	  buttons[2] = 0;
 62a:	10 92 7d 05 	sts	0x057D, r1
	
	if((uint16_t)*data & 4)
 62e:	82 ff       	sbrs	r24, 2
 630:	04 c0       	rjmp	.+8      	; 0x63a <populate_buttons+0x34>
	  //buttons |= (1<<1);
	  buttons[1] = 1;
 632:	21 e0       	ldi	r18, 0x01	; 1
 634:	20 93 7c 05 	sts	0x057C, r18
 638:	02 c0       	rjmp	.+4      	; 0x63e <populate_buttons+0x38>
	else
	  buttons[1] = 0;
 63a:	10 92 7c 05 	sts	0x057C, r1
	
	if((uint16_t)*data & 8)
 63e:	83 ff       	sbrs	r24, 3
 640:	04 c0       	rjmp	.+8      	; 0x64a <populate_buttons+0x44>
	  //buttons |= (1<<0);
	  buttons[0] = 1;
 642:	21 e0       	ldi	r18, 0x01	; 1
 644:	20 93 7b 05 	sts	0x057B, r18
 648:	02 c0       	rjmp	.+4      	; 0x64e <populate_buttons+0x48>
	else
	  buttons[0] = 0;
 64a:	10 92 7b 05 	sts	0x057B, r1
	  
	if((uint16_t)*data & 256)
 64e:	90 ff       	sbrs	r25, 0
 650:	04 c0       	rjmp	.+8      	; 0x65a <populate_buttons+0x54>
	  //buttons |= (1<<11);
	  buttons[11] = 1;
 652:	21 e0       	ldi	r18, 0x01	; 1
 654:	20 93 86 05 	sts	0x0586, r18
 658:	02 c0       	rjmp	.+4      	; 0x65e <populate_buttons+0x58>
	else
	  buttons[11] = 0;
 65a:	10 92 86 05 	sts	0x0586, r1
	  
	if((uint16_t)*data & 512)
 65e:	91 ff       	sbrs	r25, 1
 660:	04 c0       	rjmp	.+8      	; 0x66a <populate_buttons+0x64>
	  //buttons |= (1<<10);
	  buttons[10] = 1;
 662:	21 e0       	ldi	r18, 0x01	; 1
 664:	20 93 85 05 	sts	0x0585, r18
 668:	02 c0       	rjmp	.+4      	; 0x66e <populate_buttons+0x68>
	else
	  buttons[10] = 0;
 66a:	10 92 85 05 	sts	0x0585, r1
	  
	if((uint16_t)*data & 1024)
 66e:	92 ff       	sbrs	r25, 2
 670:	04 c0       	rjmp	.+8      	; 0x67a <populate_buttons+0x74>
	  //buttons |= (1<<9);
	  buttons[9] = 1;
 672:	21 e0       	ldi	r18, 0x01	; 1
 674:	20 93 84 05 	sts	0x0584, r18
 678:	02 c0       	rjmp	.+4      	; 0x67e <populate_buttons+0x78>
	else
	  buttons[9] = 0;
 67a:	10 92 84 05 	sts	0x0584, r1
	
	if((uint16_t)*data & 2048)
 67e:	93 ff       	sbrs	r25, 3
 680:	04 c0       	rjmp	.+8      	; 0x68a <populate_buttons+0x84>
	  //buttons |= (1<<8);
	  buttons[8] = 1;
 682:	21 e0       	ldi	r18, 0x01	; 1
 684:	20 93 83 05 	sts	0x0583, r18
 688:	02 c0       	rjmp	.+4      	; 0x68e <populate_buttons+0x88>
	else
	  buttons[8] = 0;
 68a:	10 92 83 05 	sts	0x0583, r1
	  
	if((uint16_t)*data & 4096)
 68e:	94 ff       	sbrs	r25, 4
 690:	04 c0       	rjmp	.+8      	; 0x69a <populate_buttons+0x94>
	  //buttons |= (1<<7);
	  buttons[7] = 1;
 692:	21 e0       	ldi	r18, 0x01	; 1
 694:	20 93 82 05 	sts	0x0582, r18
 698:	02 c0       	rjmp	.+4      	; 0x69e <populate_buttons+0x98>
	else
	  buttons[7] = 0;
 69a:	10 92 82 05 	sts	0x0582, r1
	
	if((uint16_t)*data & 8192)
 69e:	95 ff       	sbrs	r25, 5
 6a0:	04 c0       	rjmp	.+8      	; 0x6aa <populate_buttons+0xa4>
	  //buttons |= (1<<6);
	  buttons[6] = 1;
 6a2:	21 e0       	ldi	r18, 0x01	; 1
 6a4:	20 93 81 05 	sts	0x0581, r18
 6a8:	02 c0       	rjmp	.+4      	; 0x6ae <populate_buttons+0xa8>
	else
	  buttons[6] = 0;
 6aa:	10 92 81 05 	sts	0x0581, r1
	
	if((uint16_t)*data & 16384)
 6ae:	96 ff       	sbrs	r25, 6
 6b0:	04 c0       	rjmp	.+8      	; 0x6ba <populate_buttons+0xb4>
	  //buttons |= (1<<5);
	  buttons[5] = 1;
 6b2:	21 e0       	ldi	r18, 0x01	; 1
 6b4:	20 93 80 05 	sts	0x0580, r18
 6b8:	02 c0       	rjmp	.+4      	; 0x6be <populate_buttons+0xb8>
	else
	  buttons[5] = 0;
 6ba:	10 92 80 05 	sts	0x0580, r1
	  
	if((uint16_t)*data & 32768) //5:th button
 6be:	99 23       	and	r25, r25
 6c0:	24 f4       	brge	.+8      	; 0x6ca <populate_buttons+0xc4>
	  //buttons |= (1<<4);
	  buttons[4] = 1;
 6c2:	81 e0       	ldi	r24, 0x01	; 1
 6c4:	80 93 7f 05 	sts	0x057F, r24
 6c8:	08 95       	ret
	else
	  buttons[4] = 0;
 6ca:	10 92 7f 05 	sts	0x057F, r1
 6ce:	08 95       	ret

000006d0 <__vector_24>:
	
}
*/

ISR(ADC_vect)
{
 6d0:	1f 92       	push	r1
 6d2:	0f 92       	push	r0
 6d4:	0f b6       	in	r0, 0x3f	; 63
 6d6:	0f 92       	push	r0
 6d8:	11 24       	eor	r1, r1
 6da:	0b b6       	in	r0, 0x3b	; 59
 6dc:	0f 92       	push	r0
 6de:	8f 93       	push	r24
 6e0:	ef 93       	push	r30
 6e2:	ff 93       	push	r31
	
	//char adc_res[4];
	pot_data = ADCH;
 6e4:	80 91 79 00 	lds	r24, 0x0079
 6e8:	80 93 a3 07 	sts	0x07A3, r24
	//itoa(pot_data, adc_res, 10);
	//LCD_write_string(5,5,&adc_res);
	
	ADCSRA |= (1<<ADSC);
 6ec:	ea e7       	ldi	r30, 0x7A	; 122
 6ee:	f0 e0       	ldi	r31, 0x00	; 0
 6f0:	80 81       	ld	r24, Z
 6f2:	80 64       	ori	r24, 0x40	; 64
 6f4:	80 83       	st	Z, r24
}
 6f6:	ff 91       	pop	r31
 6f8:	ef 91       	pop	r30
 6fa:	8f 91       	pop	r24
 6fc:	0f 90       	pop	r0
 6fe:	0b be       	out	0x3b, r0	; 59
 700:	0f 90       	pop	r0
 702:	0f be       	out	0x3f, r0	; 63
 704:	0f 90       	pop	r0
 706:	1f 90       	pop	r1
 708:	18 95       	reti

0000070a <__vector_9>:


ISR(TIMER2_COMPA_vect)
{
 70a:	1f 92       	push	r1
 70c:	0f 92       	push	r0
 70e:	0f b6       	in	r0, 0x3f	; 63
 710:	0f 92       	push	r0
 712:	11 24       	eor	r1, r1
 714:	8f 93       	push	r24
	//button is pressed
	if(deb_buttons[2])
 716:	80 91 97 07 	lds	r24, 0x0797
 71a:	88 23       	and	r24, r24
 71c:	81 f0       	breq	.+32     	; 0x73e <__vector_9+0x34>
	{
		//increase attack!
		if(attack_value < 254-25)
 71e:	80 91 7f 05 	lds	r24, 0x057F
 722:	85 3e       	cpi	r24, 0xE5	; 229
 724:	18 f4       	brcc	.+6      	; 0x72c <__vector_9+0x22>
		  attack_value+=1;
 726:	8f 5f       	subi	r24, 0xFF	; 255
 728:	80 93 7f 05 	sts	0x057F, r24
		  
		//reset release_value
		release_value = attack_value;
 72c:	80 91 7f 05 	lds	r24, 0x057F
 730:	80 93 12 01 	sts	0x0112, r24
 734:	0a c0       	rjmp	.+20     	; 0x74a <__vector_9+0x40>
	//button is released
	if(!deb_buttons[2])
	{
		attack_value = 0;
		if(release_value > 0)
		release_value--;
 736:	81 50       	subi	r24, 0x01	; 1
 738:	80 93 12 01 	sts	0x0112, r24
 73c:	06 c0       	rjmp	.+12     	; 0x74a <__vector_9+0x40>
	}
	
	//button is released
	if(!deb_buttons[2])
	{
		attack_value = 0;
 73e:	10 92 7f 05 	sts	0x057F, r1
		if(release_value > 0)
 742:	80 91 12 01 	lds	r24, 0x0112
 746:	81 11       	cpse	r24, r1
 748:	f6 cf       	rjmp	.-20     	; 0x736 <__vector_9+0x2c>
		release_value--;
		
	}
	
	//PORTC = osc1[count];
}
 74a:	8f 91       	pop	r24
 74c:	0f 90       	pop	r0
 74e:	0f be       	out	0x3f, r0	; 63
 750:	0f 90       	pop	r0
 752:	1f 90       	pop	r1
 754:	18 95       	reti

00000756 <__vector_13>:

ISR(TIMER1_COMPA_vect)
{
 756:	1f 92       	push	r1
 758:	0f 92       	push	r0
 75a:	0f b6       	in	r0, 0x3f	; 63
 75c:	0f 92       	push	r0
 75e:	11 24       	eor	r1, r1
 760:	0b b6       	in	r0, 0x3b	; 59
 762:	0f 92       	push	r0
 764:	2f 93       	push	r18
 766:	3f 93       	push	r19
 768:	4f 93       	push	r20
 76a:	5f 93       	push	r21
 76c:	6f 93       	push	r22
 76e:	7f 93       	push	r23
 770:	8f 93       	push	r24
 772:	9f 93       	push	r25
 774:	af 93       	push	r26
 776:	bf 93       	push	r27
 778:	ef 93       	push	r30
 77a:	ff 93       	push	r31
	populate_buttons();
 77c:	0e 94 03 03 	call	0x606	; 0x606 <populate_buttons>
}
 780:	ff 91       	pop	r31
 782:	ef 91       	pop	r30
 784:	bf 91       	pop	r27
 786:	af 91       	pop	r26
 788:	9f 91       	pop	r25
 78a:	8f 91       	pop	r24
 78c:	7f 91       	pop	r23
 78e:	6f 91       	pop	r22
 790:	5f 91       	pop	r21
 792:	4f 91       	pop	r20
 794:	3f 91       	pop	r19
 796:	2f 91       	pop	r18
 798:	0f 90       	pop	r0
 79a:	0b be       	out	0x3b, r0	; 59
 79c:	0f 90       	pop	r0
 79e:	0f be       	out	0x3f, r0	; 63
 7a0:	0f 90       	pop	r0
 7a2:	1f 90       	pop	r1
 7a4:	18 95       	reti

000007a6 <__vector_16>:

//ISR(TIMER0_OVF_vect)
ISR(TIMER0_COMPA_vect)
{
 7a6:	1f 92       	push	r1
 7a8:	0f 92       	push	r0
 7aa:	0f b6       	in	r0, 0x3f	; 63
 7ac:	0f 92       	push	r0
 7ae:	11 24       	eor	r1, r1
 7b0:	0b b6       	in	r0, 0x3b	; 59
 7b2:	0f 92       	push	r0
 7b4:	2f 93       	push	r18
 7b6:	3f 93       	push	r19
 7b8:	4f 93       	push	r20
 7ba:	5f 93       	push	r21
 7bc:	6f 93       	push	r22
 7be:	7f 93       	push	r23
 7c0:	8f 93       	push	r24
 7c2:	9f 93       	push	r25
 7c4:	af 93       	push	r26
 7c6:	bf 93       	push	r27
 7c8:	ef 93       	push	r30
 7ca:	ff 93       	push	r31
	count += 2;
 7cc:	90 91 98 05 	lds	r25, 0x0598
 7d0:	9e 5f       	subi	r25, 0xFE	; 254
 7d2:	90 93 98 05 	sts	0x0598, r25
	//  count = 0;
	
	//PORTC = osc1[count];
	
	//button is released
	if(!deb_buttons[2])
 7d6:	80 91 97 07 	lds	r24, 0x0797
 7da:	81 11       	cpse	r24, r1
 7dc:	11 c0       	rjmp	.+34     	; 0x800 <__vector_16+0x5a>
	{
		if(release_value > 2)
 7de:	80 91 12 01 	lds	r24, 0x0112
 7e2:	83 30       	cpi	r24, 0x03	; 3
 7e4:	58 f0       	brcs	.+22     	; 0x7fc <__vector_16+0x56>
			PORTC = fmul(release_value>>1, osc1[count]);
 7e6:	e0 91 93 07 	lds	r30, 0x0793
 7ea:	f0 91 94 07 	lds	r31, 0x0794
 7ee:	e9 0f       	add	r30, r25
 7f0:	f1 1d       	adc	r31, r1
 7f2:	60 81       	ld	r22, Z
 7f4:	86 95       	lsr	r24
 7f6:	0e 94 cc 02 	call	0x598	; 0x598 <fmul>
 7fa:	88 b9       	out	0x08, r24	; 8
		OCR0A = note_vals[2];
 7fc:	86 ed       	ldi	r24, 0xD6	; 214
 7fe:	87 bd       	out	0x27, r24	; 39
	}
	
	if(deb_buttons[0])
 800:	80 91 95 07 	lds	r24, 0x0795
 804:	88 23       	and	r24, r24
 806:	69 f0       	breq	.+26     	; 0x822 <__vector_16+0x7c>
	{
		PORTC = osc1[count];
 808:	80 91 98 05 	lds	r24, 0x0598
 80c:	e0 91 93 07 	lds	r30, 0x0793
 810:	f0 91 94 07 	lds	r31, 0x0794
 814:	e8 0f       	add	r30, r24
 816:	f1 1d       	adc	r31, r1
 818:	80 81       	ld	r24, Z
 81a:	88 b9       	out	0x08, r24	; 8
		OCR0A = note_vals[0];
 81c:	80 ef       	ldi	r24, 0xF0	; 240
 81e:	87 bd       	out	0x27, r24	; 39
 820:	c1 c0       	rjmp	.+386    	; 0x9a4 <__vector_16+0x1fe>
	}
	
	else if(deb_buttons[1])
 822:	80 91 96 07 	lds	r24, 0x0796
 826:	88 23       	and	r24, r24
 828:	69 f0       	breq	.+26     	; 0x844 <__vector_16+0x9e>
	{
		PORTC = osc1[count];
 82a:	80 91 98 05 	lds	r24, 0x0598
 82e:	e0 91 93 07 	lds	r30, 0x0793
 832:	f0 91 94 07 	lds	r31, 0x0794
 836:	e8 0f       	add	r30, r24
 838:	f1 1d       	adc	r31, r1
 83a:	80 81       	ld	r24, Z
 83c:	88 b9       	out	0x08, r24	; 8
		OCR0A = note_vals[1];
 83e:	82 ee       	ldi	r24, 0xE2	; 226
 840:	87 bd       	out	0x27, r24	; 39
 842:	b0 c0       	rjmp	.+352    	; 0x9a4 <__vector_16+0x1fe>
	}
	
	else if(deb_buttons[2])
 844:	80 91 97 07 	lds	r24, 0x0797
 848:	88 23       	and	r24, r24
 84a:	91 f0       	breq	.+36     	; 0x870 <__vector_16+0xca>
	{
		PORTC = fmul(attack_value>>1, osc1[count]);
 84c:	80 91 98 05 	lds	r24, 0x0598
 850:	e0 91 93 07 	lds	r30, 0x0793
 854:	f0 91 94 07 	lds	r31, 0x0794
 858:	e8 0f       	add	r30, r24
 85a:	f1 1d       	adc	r31, r1
 85c:	80 91 7f 05 	lds	r24, 0x057F
 860:	60 81       	ld	r22, Z
 862:	86 95       	lsr	r24
 864:	0e 94 cc 02 	call	0x598	; 0x598 <fmul>
 868:	88 b9       	out	0x08, r24	; 8
		OCR0A = note_vals[2];
 86a:	86 ed       	ldi	r24, 0xD6	; 214
 86c:	87 bd       	out	0x27, r24	; 39
 86e:	9a c0       	rjmp	.+308    	; 0x9a4 <__vector_16+0x1fe>
		OCR0A = note_vals[2];
		
	}
	*/
	
	else if(deb_buttons[3])
 870:	80 91 98 07 	lds	r24, 0x0798
 874:	88 23       	and	r24, r24
 876:	69 f0       	breq	.+26     	; 0x892 <__vector_16+0xec>
	{
		PORTC = osc1[count];
 878:	80 91 98 05 	lds	r24, 0x0598
 87c:	e0 91 93 07 	lds	r30, 0x0793
 880:	f0 91 94 07 	lds	r31, 0x0794
 884:	e8 0f       	add	r30, r24
 886:	f1 1d       	adc	r31, r1
 888:	80 81       	ld	r24, Z
 88a:	88 b9       	out	0x08, r24	; 8
		OCR0A = note_vals[3];
 88c:	8a ec       	ldi	r24, 0xCA	; 202
 88e:	87 bd       	out	0x27, r24	; 39
 890:	89 c0       	rjmp	.+274    	; 0x9a4 <__vector_16+0x1fe>
	}
	
	else if(deb_buttons[4])
 892:	80 91 99 07 	lds	r24, 0x0799
 896:	88 23       	and	r24, r24
 898:	69 f0       	breq	.+26     	; 0x8b4 <__vector_16+0x10e>
	{
		PORTC = osc1[count];
 89a:	80 91 98 05 	lds	r24, 0x0598
 89e:	e0 91 93 07 	lds	r30, 0x0793
 8a2:	f0 91 94 07 	lds	r31, 0x0794
 8a6:	e8 0f       	add	r30, r24
 8a8:	f1 1d       	adc	r31, r1
 8aa:	80 81       	ld	r24, Z
 8ac:	88 b9       	out	0x08, r24	; 8
		//PORTC = fmul(0b00100000, osc1[count]);
		OCR0A = note_vals[4];
 8ae:	8e eb       	ldi	r24, 0xBE	; 190
 8b0:	87 bd       	out	0x27, r24	; 39
 8b2:	78 c0       	rjmp	.+240    	; 0x9a4 <__vector_16+0x1fe>
	}
	
	else if(deb_buttons[5])
 8b4:	80 91 9a 07 	lds	r24, 0x079A
 8b8:	88 23       	and	r24, r24
 8ba:	69 f0       	breq	.+26     	; 0x8d6 <__vector_16+0x130>
	{
		PORTC = osc1[count];
 8bc:	80 91 98 05 	lds	r24, 0x0598
 8c0:	e0 91 93 07 	lds	r30, 0x0793
 8c4:	f0 91 94 07 	lds	r31, 0x0794
 8c8:	e8 0f       	add	r30, r24
 8ca:	f1 1d       	adc	r31, r1
 8cc:	80 81       	ld	r24, Z
 8ce:	88 b9       	out	0x08, r24	; 8
		OCR0A = note_vals[5];
 8d0:	84 eb       	ldi	r24, 0xB4	; 180
 8d2:	87 bd       	out	0x27, r24	; 39
 8d4:	67 c0       	rjmp	.+206    	; 0x9a4 <__vector_16+0x1fe>
	}
	
	
	else if(deb_buttons[6])
 8d6:	80 91 9b 07 	lds	r24, 0x079B
 8da:	88 23       	and	r24, r24
 8dc:	69 f0       	breq	.+26     	; 0x8f8 <__vector_16+0x152>
	{
		PORTC = osc1[count];
 8de:	80 91 98 05 	lds	r24, 0x0598
 8e2:	e0 91 93 07 	lds	r30, 0x0793
 8e6:	f0 91 94 07 	lds	r31, 0x0794
 8ea:	e8 0f       	add	r30, r24
 8ec:	f1 1d       	adc	r31, r1
 8ee:	80 81       	ld	r24, Z
 8f0:	88 b9       	out	0x08, r24	; 8
		OCR0A = note_vals[6];
 8f2:	8a ea       	ldi	r24, 0xAA	; 170
 8f4:	87 bd       	out	0x27, r24	; 39
 8f6:	56 c0       	rjmp	.+172    	; 0x9a4 <__vector_16+0x1fe>
	}
	
	
	else if(deb_buttons[7])
 8f8:	80 91 9c 07 	lds	r24, 0x079C
 8fc:	88 23       	and	r24, r24
 8fe:	69 f0       	breq	.+26     	; 0x91a <__vector_16+0x174>
	{
		PORTC = osc1[count];
 900:	80 91 98 05 	lds	r24, 0x0598
 904:	e0 91 93 07 	lds	r30, 0x0793
 908:	f0 91 94 07 	lds	r31, 0x0794
 90c:	e8 0f       	add	r30, r24
 90e:	f1 1d       	adc	r31, r1
 910:	80 81       	ld	r24, Z
 912:	88 b9       	out	0x08, r24	; 8
		OCR0A = note_vals[7];
 914:	80 ea       	ldi	r24, 0xA0	; 160
 916:	87 bd       	out	0x27, r24	; 39
 918:	45 c0       	rjmp	.+138    	; 0x9a4 <__vector_16+0x1fe>
	}
	
	
	else if(deb_buttons[8])
 91a:	80 91 9d 07 	lds	r24, 0x079D
 91e:	88 23       	and	r24, r24
 920:	69 f0       	breq	.+26     	; 0x93c <__vector_16+0x196>
	{
		PORTC = osc1[count];
 922:	80 91 98 05 	lds	r24, 0x0598
 926:	e0 91 93 07 	lds	r30, 0x0793
 92a:	f0 91 94 07 	lds	r31, 0x0794
 92e:	e8 0f       	add	r30, r24
 930:	f1 1d       	adc	r31, r1
 932:	80 81       	ld	r24, Z
 934:	88 b9       	out	0x08, r24	; 8
		OCR0A = note_vals[8];
 936:	87 e9       	ldi	r24, 0x97	; 151
 938:	87 bd       	out	0x27, r24	; 39
 93a:	34 c0       	rjmp	.+104    	; 0x9a4 <__vector_16+0x1fe>
	}
	
	else if(deb_buttons[9])
 93c:	80 91 9e 07 	lds	r24, 0x079E
 940:	88 23       	and	r24, r24
 942:	69 f0       	breq	.+26     	; 0x95e <__vector_16+0x1b8>
	{
		PORTC = osc1[count];
 944:	80 91 98 05 	lds	r24, 0x0598
 948:	e0 91 93 07 	lds	r30, 0x0793
 94c:	f0 91 94 07 	lds	r31, 0x0794
 950:	e8 0f       	add	r30, r24
 952:	f1 1d       	adc	r31, r1
 954:	80 81       	ld	r24, Z
 956:	88 b9       	out	0x08, r24	; 8
		OCR0A = note_vals[9];
 958:	8f e8       	ldi	r24, 0x8F	; 143
 95a:	87 bd       	out	0x27, r24	; 39
 95c:	23 c0       	rjmp	.+70     	; 0x9a4 <__vector_16+0x1fe>
	}
	
	
	else if(deb_buttons[10])
 95e:	80 91 9f 07 	lds	r24, 0x079F
 962:	88 23       	and	r24, r24
 964:	69 f0       	breq	.+26     	; 0x980 <__vector_16+0x1da>
	{
		PORTC = osc1[count];
 966:	80 91 98 05 	lds	r24, 0x0598
 96a:	e0 91 93 07 	lds	r30, 0x0793
 96e:	f0 91 94 07 	lds	r31, 0x0794
 972:	e8 0f       	add	r30, r24
 974:	f1 1d       	adc	r31, r1
 976:	80 81       	ld	r24, Z
 978:	88 b9       	out	0x08, r24	; 8
		OCR0A = note_vals[10];
 97a:	87 e8       	ldi	r24, 0x87	; 135
 97c:	87 bd       	out	0x27, r24	; 39
 97e:	12 c0       	rjmp	.+36     	; 0x9a4 <__vector_16+0x1fe>
	}
	
	
	else if(deb_buttons[11])
 980:	80 91 a0 07 	lds	r24, 0x07A0
 984:	88 23       	and	r24, r24
 986:	69 f0       	breq	.+26     	; 0x9a2 <__vector_16+0x1fc>
	{
		PORTC = osc1[count];
 988:	80 91 98 05 	lds	r24, 0x0598
 98c:	e0 91 93 07 	lds	r30, 0x0793
 990:	f0 91 94 07 	lds	r31, 0x0794
 994:	e8 0f       	add	r30, r24
 996:	f1 1d       	adc	r31, r1
 998:	80 81       	ld	r24, Z
 99a:	88 b9       	out	0x08, r24	; 8
		OCR0A = note_vals[11];
 99c:	8f e7       	ldi	r24, 0x7F	; 127
 99e:	87 bd       	out	0x27, r24	; 39
 9a0:	01 c0       	rjmp	.+2      	; 0x9a4 <__vector_16+0x1fe>
	}
	else
		PORTC = 0;
 9a2:	18 b8       	out	0x08, r1	; 8
	
	//TCNT0=0;
}
 9a4:	ff 91       	pop	r31
 9a6:	ef 91       	pop	r30
 9a8:	bf 91       	pop	r27
 9aa:	af 91       	pop	r26
 9ac:	9f 91       	pop	r25
 9ae:	8f 91       	pop	r24
 9b0:	7f 91       	pop	r23
 9b2:	6f 91       	pop	r22
 9b4:	5f 91       	pop	r21
 9b6:	4f 91       	pop	r20
 9b8:	3f 91       	pop	r19
 9ba:	2f 91       	pop	r18
 9bc:	0f 90       	pop	r0
 9be:	0b be       	out	0x3b, r0	; 59
 9c0:	0f 90       	pop	r0
 9c2:	0f be       	out	0x3f, r0	; 63
 9c4:	0f 90       	pop	r0
 9c6:	1f 90       	pop	r1
 9c8:	18 95       	reti

000009ca <main>:
	ADMUX |= (1<<ADLAR);
}

int main(void)
{
	sei();
 9ca:	78 94       	sei
	l74hc165_init();
 9cc:	0e 94 67 00 	call	0xce	; 0xce <l74hc165_init>
	//osc1 = pseudosquare;
	
	osc1 = square_;
 9d0:	83 e1       	ldi	r24, 0x13	; 19
 9d2:	91 e0       	ldi	r25, 0x01	; 1
 9d4:	90 93 94 07 	sts	0x0794, r25
 9d8:	80 93 93 07 	sts	0x0793, r24
	//0.025
	//lowpass(osc1, square2x, 0b01110111, 0b00000101);
	
	//osc1 = prutt;
	//int n;
	DDRC = 0xff;
 9dc:	8f ef       	ldi	r24, 0xFF	; 255
 9de:	87 b9       	out	0x07, r24	; 7
	
	LCD_init();
 9e0:	0e 94 58 02 	call	0x4b0	; 0x4b0 <LCD_init>
	LCD_clear();
 9e4:	0e 94 53 02 	call	0x4a6	; 0x4a6 <LCD_clear>
	setup_timer1();
	setup_timer0();
	setup_timer2();
	*/
	
	setup_4_buttons();
 9e8:	0e 94 98 00 	call	0x130	; 0x130 <setup_4_buttons>
	
	//setup_adc();
	//LCD_clear_buffer();
	setup_menu();
 9ec:	0e 94 e8 00 	call	0x1d0	; 0x1d0 <setup_menu>
 9f0:	0b e7       	ldi	r16, 0x7B	; 123
 9f2:	15 e0       	ldi	r17, 0x05	; 5
 9f4:	0f 2e       	mov	r0, r31
 9f6:	f7 e8       	ldi	r31, 0x87	; 135
 9f8:	ef 2e       	mov	r14, r31
 9fa:	f5 e0       	ldi	r31, 0x05	; 5
 9fc:	ff 2e       	mov	r15, r31
 9fe:	f0 2d       	mov	r31, r0
	
    while(1)
    {
		navigate_menu();
 a00:	0e 94 a1 00 	call	0x142	; 0x142 <navigate_menu>
		read_4_buttons();
 a04:	0e 94 7f 01 	call	0x2fe	; 0x2fe <read_4_buttons>
		LCD_clear_buffer();
 a08:	0e 94 4a 02 	call	0x494	; 0x494 <LCD_clear_buffer>
		LCD_draw_menu(0);
 a0c:	80 e0       	ldi	r24, 0x00	; 0
 a0e:	0e 94 9f 02 	call	0x53e	; 0x53e <LCD_draw_menu>
		LCD_write_buffer();
 a12:	0e 94 1e 02 	call	0x43c	; 0x43c <LCD_write_buffer>
	#else
		//round up by default
		__ticks_dc = (uint32_t)(ceil(fabs(__tmp)));
	#endif

	__builtin_avr_delay_cycles(__ticks_dc);
 a16:	2f ef       	ldi	r18, 0xFF	; 255
 a18:	81 ee       	ldi	r24, 0xE1	; 225
 a1a:	94 e0       	ldi	r25, 0x04	; 4
 a1c:	21 50       	subi	r18, 0x01	; 1
 a1e:	80 40       	sbci	r24, 0x00	; 0
 a20:	90 40       	sbci	r25, 0x00	; 0
 a22:	e1 f7       	brne	.-8      	; 0xa1c <main+0x52>
 a24:	00 c0       	rjmp	.+0      	; 0xa26 <main+0x5c>
 a26:	00 00       	nop
			iii = 0;
		_delay_ms(100);
		LCD_clear_buffer();
		*/
		
		l74hc165_shiftin(&data);
 a28:	88 ea       	ldi	r24, 0xA8	; 168
 a2a:	97 e0       	ldi	r25, 0x07	; 7
 a2c:	0e 94 6d 00 	call	0xda	; 0xda <l74hc165_shiftin>
	#else
		//round up by default
		__ticks_dc = (uint32_t)(ceil(fabs(__tmp)));
	#endif

	__builtin_avr_delay_cycles(__ticks_dc);
 a30:	2a e1       	ldi	r18, 0x1A	; 26
 a32:	2a 95       	dec	r18
 a34:	f1 f7       	brne	.-4      	; 0xa32 <main+0x68>
 a36:	00 c0       	rjmp	.+0      	; 0xa38 <main+0x6e>
 a38:	e8 01       	movw	r28, r16
 a3a:	6c 2f       	mov	r22, r28
 a3c:	60 1b       	sub	r22, r16
		_delay_us(10);
		for (uint8_t i=0;i<12;i++)
		{
			debounce(buttons[i],i);
 a3e:	89 91       	ld	r24, Y+
 a40:	0e 94 d6 02 	call	0x5ac	; 0x5ac <debounce>
		LCD_clear_buffer();
		*/
		
		l74hc165_shiftin(&data);
		_delay_us(10);
		for (uint8_t i=0;i<12;i++)
 a44:	ce 15       	cp	r28, r14
 a46:	df 05       	cpc	r29, r15
 a48:	c1 f7       	brne	.-16     	; 0xa3a <main+0x70>
 a4a:	da cf       	rjmp	.-76     	; 0xa00 <main+0x36>

00000a4c <_exit>:
 a4c:	f8 94       	cli

00000a4e <__stop_program>:
 a4e:	ff cf       	rjmp	.-2      	; 0xa4e <__stop_program>
